target datalayout = "e-m:e-p270:32:32-p271:32:32-p272:64:64-i64:64-i128:128-f80:128-n8:16:32:64-S128"
target triple = "x86_64-pc-linux-gnu"

%"class.pxrInternal_v0_24__pxrReserved__::PcpNodeIterator" = type { ptr, i64 }
%"class.__gnu_cxx::__normal_iterator" = type { ptr }
%"class.pxrInternal_v0_24__pxrReserved__::PcpNodeRef" = type { ptr, i64 }
%"class.pxrInternal_v0_24__pxrReserved__::UsdResolveTarget" = type { %"class.std::shared_ptr", %"struct.std::pair", %"class.pxrInternal_v0_24__pxrReserved__::PcpNodeIterator", %"class.__gnu_cxx::__normal_iterator", %"class.pxrInternal_v0_24__pxrReserved__::PcpNodeIterator", %"class.__gnu_cxx::__normal_iterator" }
%"class.std::shared_ptr" = type { %"class.std::__shared_ptr" }
%"class.std::__shared_ptr" = type { ptr, %"class.std::__shared_count" }
%"class.std::__shared_count" = type { ptr }
%"struct.std::pair" = type { %"class.pxrInternal_v0_24__pxrReserved__::PcpNodeIterator", %"class.pxrInternal_v0_24__pxrReserved__::PcpNodeIterator" }
%"class.std::_Sp_counted_base" = type { ptr, i32, i32 }

@__libc_single_threaded = external global i8, align 1

; Function Attrs: noreturn nounwind uwtable
define linkonce_odr hidden void @__clang_call_terminate(ptr noundef %0) #4 comdat {
  %2 = call ptr @__cxa_begin_catch(ptr %0) #8
  call void @_ZSt9terminatev() #9
  unreachable
}

; Function Attrs: mustprogress uwtable
define linkonce_odr void @_ZNSt16_Sp_counted_baseILN9__gnu_cxx12_Lock_policyE2EE15_M_add_ref_copyEv(ptr noundef nonnull align 8 dereferenceable(16) %0) #0 comdat align 2 {
  %2 = alloca ptr, align 8
  %3 = alloca i32, align 4
  %4 = alloca i32, align 4
  %5 = alloca i32, align 4
  %6 = alloca ptr, align 8
  %7 = alloca i32, align 4
  %8 = alloca ptr, align 8
  %9 = alloca i32, align 4
  %10 = alloca ptr, align 8
  store ptr %0, ptr %10, align 8
  %11 = load ptr, ptr %10, align 8
  %12 = getelementptr inbounds nuw %"class.std::_Sp_counted_base", ptr %11, i32 0, i32 1
  store ptr %12, ptr %8, align 8
  store i32 1, ptr %9, align 4
  %13 = load i8, ptr @__libc_single_threaded, align 1
  %14 = icmp ne i8 %13, 0
  br i1 %14, label %15, label %22

15:                                               ; preds = %1
  %16 = load ptr, ptr %8, align 8
  %17 = load i32, ptr %9, align 4
  store ptr %16, ptr %6, align 8
  store i32 %17, ptr %7, align 4
  %18 = load i32, ptr %7, align 4
  %19 = load ptr, ptr %6, align 8
  %20 = load i32, ptr %19, align 4
  %21 = add nsw i32 %20, %18
  store i32 %21, ptr %19, align 4
  br label %29

22:                                               ; preds = %1
  %23 = load ptr, ptr %8, align 8
  %24 = load i32, ptr %9, align 4
  store ptr %23, ptr %2, align 8
  store i32 %24, ptr %3, align 4
  %25 = load ptr, ptr %2, align 8
  %26 = load i32, ptr %3, align 4
  store i32 %26, ptr %4, align 4
  %27 = load i32, ptr %4, align 4
  %28 = atomicrmw volatile add ptr %25, i32 %27 acq_rel, align 4
  store i32 %28, ptr %5, align 4
  br label %29

29:                                               ; preds = %22, %15
  ret void
}

; Function Attrs: mustprogress nounwind uwtable
define linkonce_odr void @_ZN32pxrInternal_v0_24__pxrReserved__10PcpNodeRefC2EPNS_18PcpPrimIndex_GraphEm(ptr noundef nonnull align 8 dereferenceable(16) %0, ptr noundef %1, i64 noundef %2) unnamed_addr #1 comdat align 2 {
  %4 = alloca ptr, align 8
  %5 = alloca ptr, align 8
  %6 = alloca i64, align 8
  store ptr %0, ptr %4, align 8
  store ptr %1, ptr %5, align 8
  store i64 %2, ptr %6, align 8
  %7 = load ptr, ptr %4, align 8
  %8 = getelementptr inbounds nuw %"class.pxrInternal_v0_24__pxrReserved__::PcpNodeRef", ptr %7, i32 0, i32 0
  %9 = load ptr, ptr %5, align 8
  store ptr %9, ptr %8, align 8
  %10 = getelementptr inbounds nuw %"class.pxrInternal_v0_24__pxrReserved__::PcpNodeRef", ptr %7, i32 0, i32 1
  %11 = load i64, ptr %6, align 8
  store i64 %11, ptr %10, align 8
  ret void
}

; Function Attrs: mustprogress nounwind uwtable
define linkonce_odr noundef ptr @_ZNKSt12__shared_ptrIN32pxrInternal_v0_24__pxrReserved__12PcpPrimIndexELN9__gnu_cxx12_Lock_policyE2EE3getEv(ptr noundef nonnull align 8 dereferenceable(16) %0) #1 comdat align 2 {
  %2 = alloca ptr, align 8
  store ptr %0, ptr %2, align 8
  %3 = load ptr, ptr %2, align 8
  %4 = getelementptr inbounds nuw %"class.std::__shared_ptr", ptr %3, i32 0, i32 0
  %5 = load ptr, ptr %4, align 8
  ret ptr %5
}

; Function Attrs: mustprogress nounwind uwtable
define linkonce_odr void @_ZNSt14__shared_countILN9__gnu_cxx12_Lock_policyE2EEC2ERKS2_(ptr noundef nonnull align 8 dereferenceable(8) %0, ptr noundef nonnull align 8 dereferenceable(8) %1) unnamed_addr #1 comdat align 2 personality ptr @__gxx_personality_v0 {
  %3 = alloca ptr, align 8
  %4 = alloca ptr, align 8
  store ptr %0, ptr %3, align 8
  store ptr %1, ptr %4, align 8
  %5 = load ptr, ptr %3, align 8
  %6 = getelementptr inbounds nuw %"class.std::__shared_count", ptr %5, i32 0, i32 0
  %7 = load ptr, ptr %4, align 8
  %8 = getelementptr inbounds nuw %"class.std::__shared_count", ptr %7, i32 0, i32 0
  %9 = load ptr, ptr %8, align 8
  store ptr %9, ptr %6, align 8
  %10 = getelementptr inbounds nuw %"class.std::__shared_count", ptr %5, i32 0, i32 0
  %11 = load ptr, ptr %10, align 8
  %12 = icmp ne ptr %11, null
  br i1 %12, label %13, label %17

13:                                               ; preds = %2
  %14 = getelementptr inbounds nuw %"class.std::__shared_count", ptr %5, i32 0, i32 0
  %15 = load ptr, ptr %14, align 8
  invoke void @_ZNSt16_Sp_counted_baseILN9__gnu_cxx12_Lock_policyE2EE15_M_add_ref_copyEv(ptr noundef nonnull align 8 dereferenceable(16) %15)
          to label %16 unwind label %18

16:                                               ; preds = %13
  br label %17

17:                                               ; preds = %16, %2
  ret void

18:                                               ; preds = %13
  %19 = landingpad { ptr, i32 }
          catch ptr null
  %20 = extractvalue { ptr, i32 } %19, 0
  call void @__clang_call_terminate(ptr %20) #9
  unreachable
}

; Function Attrs: mustprogress uwtable
define linkonce_odr { ptr, i64 } @_ZNK32pxrInternal_v0_24__pxrReserved__15PcpNodeIterator11dereferenceEv(ptr noundef nonnull align 8 dereferenceable(16) %0) #0 comdat align 2 {
  %2 = alloca %"class.pxrInternal_v0_24__pxrReserved__::PcpNodeRef", align 8
  %3 = alloca ptr, align 8
  store ptr %0, ptr %3, align 8
  %4 = load ptr, ptr %3, align 8
  %5 = getelementptr inbounds nuw %"class.pxrInternal_v0_24__pxrReserved__::PcpNodeIterator", ptr %4, i32 0, i32 0
  %6 = load ptr, ptr %5, align 8
  %7 = getelementptr inbounds nuw %"class.pxrInternal_v0_24__pxrReserved__::PcpNodeIterator", ptr %4, i32 0, i32 1
  %8 = load i64, ptr %7, align 8
  call void @_ZN32pxrInternal_v0_24__pxrReserved__10PcpNodeRefC2EPNS_18PcpPrimIndex_GraphEm(ptr noundef nonnull align 8 dereferenceable(16) %2, ptr noundef %6, i64 noundef %8)
  %9 = load { ptr, i64 }, ptr %2, align 8
  ret { ptr, i64 } %9
}

; Function Attrs: mustprogress nounwind uwtable
define linkonce_odr noundef zeroext i1 @_ZNK32pxrInternal_v0_24__pxrReserved__15PcpNodeIterator5equalERKS0_(ptr noundef nonnull align 8 dereferenceable(16) %0, ptr noundef nonnull align 8 dereferenceable(16) %1) #1 comdat align 2 {
  %3 = alloca ptr, align 8
  %4 = alloca ptr, align 8
  store ptr %0, ptr %3, align 8
  store ptr %1, ptr %4, align 8
  %5 = load ptr, ptr %3, align 8
  %6 = getelementptr inbounds nuw %"class.pxrInternal_v0_24__pxrReserved__::PcpNodeIterator", ptr %5, i32 0, i32 0
  %7 = load ptr, ptr %6, align 8
  %8 = load ptr, ptr %4, align 8
  %9 = getelementptr inbounds nuw %"class.pxrInternal_v0_24__pxrReserved__::PcpNodeIterator", ptr %8, i32 0, i32 0
  %10 = load ptr, ptr %9, align 8
  %11 = icmp eq ptr %7, %10
  %12 = zext i1 %11 to i32
  %13 = getelementptr inbounds nuw %"class.pxrInternal_v0_24__pxrReserved__::PcpNodeIterator", ptr %5, i32 0, i32 1
  %14 = load i64, ptr %13, align 8
  %15 = load ptr, ptr %4, align 8
  %16 = getelementptr inbounds nuw %"class.pxrInternal_v0_24__pxrReserved__::PcpNodeIterator", ptr %15, i32 0, i32 1
  %17 = load i64, ptr %16, align 8
  %18 = icmp eq i64 %14, %17
  %19 = zext i1 %18 to i32
  %20 = and i32 %12, %19
  %21 = icmp ne i32 %20, 0
  ret i1 %21
}

; Function Attrs: mustprogress nounwind uwtable
define linkonce_odr noundef ptr @_ZNKSt19__shared_ptr_accessIN32pxrInternal_v0_24__pxrReserved__12PcpPrimIndexELN9__gnu_cxx12_Lock_policyE2ELb0ELb0EE6_M_getEv(ptr noundef nonnull align 1 dereferenceable(1) %0) #1 comdat align 2 {
  %2 = alloca ptr, align 8
  store ptr %0, ptr %2, align 8
  %3 = load ptr, ptr %2, align 8
  %4 = call noundef ptr @_ZNKSt12__shared_ptrIN32pxrInternal_v0_24__pxrReserved__12PcpPrimIndexELN9__gnu_cxx12_Lock_policyE2EE3getEv(ptr noundef nonnull align 8 dereferenceable(16) %3) #8
  ret ptr %4
}

; Function Attrs: mustprogress nounwind uwtable
define linkonce_odr void @_ZNSt12__shared_ptrIN32pxrInternal_v0_24__pxrReserved__12PcpPrimIndexELN9__gnu_cxx12_Lock_policyE2EEC2ERKS4_(ptr noundef nonnull align 8 dereferenceable(16) %0, ptr noundef nonnull align 8 dereferenceable(16) %1) unnamed_addr #1 comdat align 2 {
  %3 = alloca ptr, align 8
  %4 = alloca ptr, align 8
  store ptr %0, ptr %3, align 8
  store ptr %1, ptr %4, align 8
  %5 = load ptr, ptr %3, align 8
  %6 = getelementptr inbounds nuw %"class.std::__shared_ptr", ptr %5, i32 0, i32 0
  %7 = load ptr, ptr %4, align 8
  %8 = getelementptr inbounds nuw %"class.std::__shared_ptr", ptr %7, i32 0, i32 0
  %9 = load ptr, ptr %8, align 8
  store ptr %9, ptr %6, align 8
  %10 = getelementptr inbounds nuw %"class.std::__shared_ptr", ptr %5, i32 0, i32 1
  %11 = load ptr, ptr %4, align 8
  %12 = getelementptr inbounds nuw %"class.std::__shared_ptr", ptr %11, i32 0, i32 1
  call void @_ZNSt14__shared_countILN9__gnu_cxx12_Lock_policyE2EEC2ERKS2_(ptr noundef nonnull align 8 dereferenceable(8) %10, ptr noundef nonnull align 8 dereferenceable(8) %12) #8
  ret void
}

; Function Attrs: mustprogress uwtable
define linkonce_odr { ptr, i64 } @_ZNK32pxrInternal_v0_24__pxrReserved__15PcpNodeIteratordeEv(ptr noundef nonnull align 8 dereferenceable(16) %0) #0 comdat align 2 {
  %2 = alloca %"class.pxrInternal_v0_24__pxrReserved__::PcpNodeRef", align 8
  %3 = alloca ptr, align 8
  store ptr %0, ptr %3, align 8
  %4 = load ptr, ptr %3, align 8
  %5 = call { ptr, i64 } @_ZNK32pxrInternal_v0_24__pxrReserved__15PcpNodeIterator11dereferenceEv(ptr noundef nonnull align 8 dereferenceable(16) %4)
  %6 = getelementptr inbounds nuw { ptr, i64 }, ptr %2, i32 0, i32 0
  %7 = extractvalue { ptr, i64 } %5, 0
  store ptr %7, ptr %6, align 8
  %8 = getelementptr inbounds nuw { ptr, i64 }, ptr %2, i32 0, i32 1
  %9 = extractvalue { ptr, i64 } %5, 1
  store i64 %9, ptr %8, align 8
  %10 = load { ptr, i64 }, ptr %2, align 8
  ret { ptr, i64 } %10
}

; Function Attrs: mustprogress uwtable
define linkonce_odr noundef zeroext i1 @_ZNK32pxrInternal_v0_24__pxrReserved__15PcpNodeIteratorneERKS0_(ptr noundef nonnull align 8 dereferenceable(16) %0, ptr noundef nonnull align 8 dereferenceable(16) %1) #0 comdat align 2 {
  %3 = alloca ptr, align 8
  %4 = alloca ptr, align 8
  store ptr %0, ptr %3, align 8
  store ptr %1, ptr %4, align 8
  %5 = load ptr, ptr %3, align 8
  %6 = load ptr, ptr %4, align 8
  %7 = call noundef zeroext i1 @_ZNK32pxrInternal_v0_24__pxrReserved__15PcpNodeIterator5equalERKS0_(ptr noundef nonnull align 8 dereferenceable(16) %5, ptr noundef nonnull align 8 dereferenceable(16) %6)
  %8 = xor i1 %7, true
  ret i1 %8
}

; Function Attrs: mustprogress nounwind uwtable
define linkonce_odr void @_ZN9__gnu_cxx17__normal_iteratorIPKN32pxrInternal_v0_24__pxrReserved__8TfRefPtrINS1_8SdfLayerEEESt6vectorIS4_SaIS4_EEEC2Ev(ptr noundef nonnull align 8 dereferenceable(8) %0) unnamed_addr #1 comdat align 2 {
  %2 = alloca ptr, align 8
  store ptr %0, ptr %2, align 8
  %3 = load ptr, ptr %2, align 8
  %4 = getelementptr inbounds nuw %"class.__gnu_cxx::__normal_iterator", ptr %3, i32 0, i32 0
  store ptr null, ptr %4, align 8
  ret void
}

; Function Attrs: mustprogress nounwind uwtable
define linkonce_odr void @_ZN32pxrInternal_v0_24__pxrReserved__15PcpNodeIteratorC2Ev(ptr noundef nonnull align 8 dereferenceable(16) %0) unnamed_addr #1 comdat align 2 {
  %2 = alloca ptr, align 8
  store ptr %0, ptr %2, align 8
  %3 = load ptr, ptr %2, align 8
  %4 = getelementptr inbounds nuw %"class.pxrInternal_v0_24__pxrReserved__::PcpNodeIterator", ptr %3, i32 0, i32 0
  store ptr null, ptr %4, align 8
  %5 = getelementptr inbounds nuw %"class.pxrInternal_v0_24__pxrReserved__::PcpNodeIterator", ptr %3, i32 0, i32 1
  store i64 -1, ptr %5, align 8
  ret void
}

; Function Attrs: mustprogress nounwind uwtable
define linkonce_odr noundef ptr @_ZNKSt19__shared_ptr_accessIN32pxrInternal_v0_24__pxrReserved__12PcpPrimIndexELN9__gnu_cxx12_Lock_policyE2ELb0ELb0EEptEv(ptr noundef nonnull align 1 dereferenceable(1) %0) #1 comdat align 2 {
  %2 = alloca ptr, align 8
  store ptr %0, ptr %2, align 8
  %3 = load ptr, ptr %2, align 8
  %4 = call noundef ptr @_ZNKSt19__shared_ptr_accessIN32pxrInternal_v0_24__pxrReserved__12PcpPrimIndexELN9__gnu_cxx12_Lock_policyE2ELb0ELb0EE6_M_getEv(ptr noundef nonnull align 1 dereferenceable(1) %3) #8
  ret ptr %4
}

; Function Attrs: mustprogress nounwind uwtable
define linkonce_odr void @_ZNSt10shared_ptrIN32pxrInternal_v0_24__pxrReserved__12PcpPrimIndexEEC2ERKS2_(ptr noundef nonnull align 8 dereferenceable(16) %0, ptr noundef nonnull align 8 dereferenceable(16) %1) unnamed_addr #1 comdat align 2 {
  %3 = alloca ptr, align 8
  %4 = alloca ptr, align 8
  store ptr %0, ptr %3, align 8
  store ptr %1, ptr %4, align 8
  %5 = load ptr, ptr %3, align 8
  %6 = load ptr, ptr %4, align 8
  call void @_ZNSt12__shared_ptrIN32pxrInternal_v0_24__pxrReserved__12PcpPrimIndexELN9__gnu_cxx12_Lock_policyE2EEC2ERKS4_(ptr noundef nonnull align 8 dereferenceable(16) %5, ptr noundef nonnull align 8 dereferenceable(16) %6) #8
  ret void
}

; Function Attrs: mustprogress uwtable
define void @_ZN32pxrInternal_v0_24__pxrReserved__16UsdResolveTargetC2ERKSt10shared_ptrINS_12PcpPrimIndexEERKNS_10PcpNodeRefERKNS_9TfWeakPtrINS_8SdfLayerEEE(ptr noundef nonnull align 8 dereferenceable(96) %0, ptr noundef nonnull align 8 dereferenceable(16) %1, ptr noundef nonnull align 8 dereferenceable(16) %2, ptr noundef nonnull align 8 dereferenceable(16) %3) unnamed_addr #0 align 2 personality ptr @__gxx_personality_v0 {
  %5 = alloca ptr, align 8
  %6 = alloca ptr, align 8
  %7 = alloca ptr, align 8
  %8 = alloca ptr, align 8
  %9 = alloca ptr, align 8
  %10 = alloca i32, align 4
  %11 = alloca %"class.pxrInternal_v0_24__pxrReserved__::PcpNodeIterator", align 8
  %12 = alloca %"class.__gnu_cxx::__normal_iterator", align 8
  %13 = alloca %"class.pxrInternal_v0_24__pxrReserved__::PcpNodeRef", align 8
  store ptr %0, ptr %5, align 8
  store ptr %1, ptr %6, align 8
  store ptr %2, ptr %7, align 8
  store ptr %3, ptr %8, align 8
  %14 = load ptr, ptr %5, align 8
  %15 = getelementptr inbounds nuw %"class.pxrInternal_v0_24__pxrReserved__::UsdResolveTarget", ptr %14, i32 0, i32 0
  %16 = load ptr, ptr %6, align 8
  call void @_ZNSt10shared_ptrIN32pxrInternal_v0_24__pxrReserved__12PcpPrimIndexEEC2ERKS2_(ptr noundef nonnull align 8 dereferenceable(16) %15, ptr noundef nonnull align 8 dereferenceable(16) %16) #8
  %17 = getelementptr inbounds nuw %"class.pxrInternal_v0_24__pxrReserved__::UsdResolveTarget", ptr %14, i32 0, i32 1
  %18 = load ptr, ptr %6, align 8
  %19 = call noundef ptr @_ZNKSt19__shared_ptr_accessIN32pxrInternal_v0_24__pxrReserved__12PcpPrimIndexELN9__gnu_cxx12_Lock_policyE2ELb0ELb0EEptEv(ptr noundef nonnull align 1 dereferenceable(1) %18) #8
  invoke void @_ZNK32pxrInternal_v0_24__pxrReserved__12PcpPrimIndex12GetNodeRangeENS_12PcpRangeTypeE(ptr dead_on_unwind writable sret(%"struct.std::pair") align 8 %17, ptr noundef nonnull align 8 dereferenceable(40) %19, i32 noundef 6)
          to label %20 unwind label %56

20:                                               ; preds = %4
  %21 = getelementptr inbounds nuw %"class.pxrInternal_v0_24__pxrReserved__::UsdResolveTarget", ptr %14, i32 0, i32 2
  call void @_ZN32pxrInternal_v0_24__pxrReserved__15PcpNodeIteratorC2Ev(ptr noundef nonnull align 8 dereferenceable(16) %21) #8
  %22 = getelementptr inbounds nuw %"class.pxrInternal_v0_24__pxrReserved__::UsdResolveTarget", ptr %14, i32 0, i32 3
  call void @_ZN9__gnu_cxx17__normal_iteratorIPKN32pxrInternal_v0_24__pxrReserved__8TfRefPtrINS1_8SdfLayerEEESt6vectorIS4_SaIS4_EEEC2Ev(ptr noundef nonnull align 8 dereferenceable(8) %22) #8
  %23 = getelementptr inbounds nuw %"class.pxrInternal_v0_24__pxrReserved__::UsdResolveTarget", ptr %14, i32 0, i32 4
  call void @_ZN32pxrInternal_v0_24__pxrReserved__15PcpNodeIteratorC2Ev(ptr noundef nonnull align 8 dereferenceable(16) %23) #8
  %24 = getelementptr inbounds nuw %"class.pxrInternal_v0_24__pxrReserved__::UsdResolveTarget", ptr %14, i32 0, i32 5
  call void @_ZN9__gnu_cxx17__normal_iteratorIPKN32pxrInternal_v0_24__pxrReserved__8TfRefPtrINS1_8SdfLayerEEESt6vectorIS4_SaIS4_EEEC2Ev(ptr noundef nonnull align 8 dereferenceable(8) %24) #8
  %25 = getelementptr inbounds nuw %"class.pxrInternal_v0_24__pxrReserved__::UsdResolveTarget", ptr %14, i32 0, i32 1
  %26 = getelementptr inbounds nuw %"struct.std::pair", ptr %25, i32 0, i32 1
  %27 = getelementptr inbounds nuw %"class.pxrInternal_v0_24__pxrReserved__::UsdResolveTarget", ptr %14, i32 0, i32 4
  call void @llvm.memcpy.p0.p0.i64(ptr align 8 %27, ptr align 8 %26, i64 16, i1 false)
  %28 = load ptr, ptr %6, align 8
  %29 = call noundef ptr @_ZNKSt19__shared_ptr_accessIN32pxrInternal_v0_24__pxrReserved__12PcpPrimIndexELN9__gnu_cxx12_Lock_policyE2ELb0ELb0EEptEv(ptr noundef nonnull align 1 dereferenceable(1) %28) #8
  %30 = load ptr, ptr %7, align 8
  %31 = invoke { ptr, i64 } @_ZNK32pxrInternal_v0_24__pxrReserved__12PcpPrimIndex21GetNodeIteratorAtNodeERKNS_10PcpNodeRefE(ptr noundef nonnull align 8 dereferenceable(40) %29, ptr noundef nonnull align 8 dereferenceable(16) %30)
          to label %32 unwind label %56

32:                                               ; preds = %20
  %33 = getelementptr inbounds nuw { ptr, i64 }, ptr %11, i32 0, i32 0
  %34 = extractvalue { ptr, i64 } %31, 0
  store ptr %34, ptr %33, align 8
  %35 = getelementptr inbounds nuw { ptr, i64 }, ptr %11, i32 0, i32 1
  %36 = extractvalue { ptr, i64 } %31, 1
  store i64 %36, ptr %35, align 8
  %37 = getelementptr inbounds nuw %"class.pxrInternal_v0_24__pxrReserved__::UsdResolveTarget", ptr %14, i32 0, i32 2
  call void @llvm.memcpy.p0.p0.i64(ptr align 8 %37, ptr align 8 %11, i64 16, i1 false)
  %38 = getelementptr inbounds nuw %"class.pxrInternal_v0_24__pxrReserved__::UsdResolveTarget", ptr %14, i32 0, i32 2
  %39 = getelementptr inbounds nuw %"class.pxrInternal_v0_24__pxrReserved__::UsdResolveTarget", ptr %14, i32 0, i32 1
  %40 = getelementptr inbounds nuw %"struct.std::pair", ptr %39, i32 0, i32 1
  %41 = invoke noundef zeroext i1 @_ZNK32pxrInternal_v0_24__pxrReserved__15PcpNodeIteratorneERKS0_(ptr noundef nonnull align 8 dereferenceable(16) %38, ptr noundef nonnull align 8 dereferenceable(16) %40)
          to label %42 unwind label %56

42:                                               ; preds = %32
  br i1 %41, label %43, label %60

43:                                               ; preds = %42
  %44 = getelementptr inbounds nuw %"class.pxrInternal_v0_24__pxrReserved__::UsdResolveTarget", ptr %14, i32 0, i32 2
  %45 = invoke { ptr, i64 } @_ZNK32pxrInternal_v0_24__pxrReserved__15PcpNodeIteratordeEv(ptr noundef nonnull align 8 dereferenceable(16) %44)
          to label %46 unwind label %56

46:                                               ; preds = %43
  %47 = getelementptr inbounds nuw { ptr, i64 }, ptr %13, i32 0, i32 0
  %48 = extractvalue { ptr, i64 } %45, 0
  store ptr %48, ptr %47, align 8
  %49 = getelementptr inbounds nuw { ptr, i64 }, ptr %13, i32 0, i32 1
  %50 = extractvalue { ptr, i64 } %45, 1
  store i64 %50, ptr %49, align 8
  %51 = load ptr, ptr %8, align 8
  %52 = invoke ptr @_ZN32pxrInternal_v0_24__pxrReserved__L23_GetLayerIteratorInNodeERKNS_10PcpNodeRefERKNS_9TfWeakPtrINS_8SdfLayerEEE(ptr noundef nonnull align 8 dereferenceable(16) %13, ptr noundef nonnull align 8 dereferenceable(16) %51)
          to label %53 unwind label %56

53:                                               ; preds = %46
  %54 = getelementptr inbounds nuw %"class.__gnu_cxx::__normal_iterator", ptr %12, i32 0, i32 0
  store ptr %52, ptr %54, align 8
  %55 = getelementptr inbounds nuw %"class.pxrInternal_v0_24__pxrReserved__::UsdResolveTarget", ptr %14, i32 0, i32 3
  call void @llvm.memcpy.p0.p0.i64(ptr align 8 %55, ptr align 8 %12, i64 8, i1 false)
  br label %60

56:                                               ; preds = %46, %43, %32, %20, %4
  %57 = landingpad { ptr, i32 }
          cleanup
  %58 = extractvalue { ptr, i32 } %57, 0
  store ptr %58, ptr %9, align 8
  %59 = extractvalue { ptr, i32 } %57, 1
  store i32 %59, ptr %10, align 4
  call void @_ZNSt10shared_ptrIN32pxrInternal_v0_24__pxrReserved__12PcpPrimIndexEED2Ev(ptr noundef nonnull align 8 dereferenceable(16) %15) #8
  br label %61

60:                                               ; preds = %53, %42
  ret void

61:                                               ; preds = %56
  %62 = load ptr, ptr %9, align 8
  %63 = load i32, ptr %10, align 4
  %64 = insertvalue { ptr, i32 } poison, ptr %62, 0
  %65 = insertvalue { ptr, i32 } %64, i32 %63, 1
  resume { ptr, i32 } %65
}