; Function Attrs: mustprogress uwtable
define void @_ZN32pxrInternal_v0_24__pxrReserved__16UsdResolveTargetC2ERKSt10shared_ptrINS_12PcpPrimIndexEERKNS_10PcpNodeRefERKNS_9TfWeakPtrINS_8SdfLayerEEE(ptr noundef nonnull align 8 dereferenceable(96) %0, ptr nocapture noundef nonnull readonly align 8 dereferenceable(16) %1, ptr noundef nonnull align 8 dereferenceable(16) %2, ptr nocapture noundef nonnull readonly align 8 dereferenceable(16) %3) unnamed_addr #0 align 2 personality ptr @__gxx_personality_v0 {
  %5 = alloca %"class.pxrInternal_v0_24__pxrReserved__::PcpNodeRef", align 8
  %6 = load ptr, ptr %1, align 8
  store ptr %6, ptr %0, align 8
  %7 = getelementptr inbounds nuw i8, ptr %0, i64 8
  %8 = getelementptr inbounds nuw i8, ptr %1, i64 8
  %9 = load ptr, ptr %8, align 8
  store ptr %9, ptr %7, align 8
  %.not.i.i.i = icmp eq ptr %9, null
  br i1 %.not.i.i.i, label %_ZNSt10shared_ptrIN32pxrInternal_v0_24__pxrReserved__12PcpPrimIndexEEC2ERKS2_.exit, label %10

10:                                               ; preds = %4
  %11 = getelementptr inbounds nuw i8, ptr %9, i64 8
  %12 = load i8, ptr @__libc_single_threaded, align 1
  %.not.i.i.i.i = icmp eq i8 %12, 0
  br i1 %.not.i.i.i.i, label %16, label %13

13:                                               ; preds = %10
  %14 = load i32, ptr %11, align 4
  %15 = add nsw i32 %14, 1
  store i32 %15, ptr %11, align 4
  br label %_ZNSt10shared_ptrIN32pxrInternal_v0_24__pxrReserved__12PcpPrimIndexEEC2ERKS2_.exit

16:                                               ; preds = %10
  %17 = atomicrmw volatile add ptr %11, i32 1 acq_rel, align 4
  br label %_ZNSt10shared_ptrIN32pxrInternal_v0_24__pxrReserved__12PcpPrimIndexEEC2ERKS2_.exit

_ZNSt10shared_ptrIN32pxrInternal_v0_24__pxrReserved__12PcpPrimIndexEEC2ERKS2_.exit: ; preds = %4, %13, %16
  %18 = getelementptr inbounds nuw i8, ptr %0, i64 16
  %19 = load ptr, ptr %1, align 8
  invoke void @_ZNK32pxrInternal_v0_24__pxrReserved__12PcpPrimIndex12GetNodeRangeENS_12PcpRangeTypeE(ptr dead_on_unwind nonnull writable sret(%"struct.std::pair") align 8 %18, ptr noundef nonnull align 8 dereferenceable(40) %19, i32 noundef 6)
          to label %20 unwind label %41

20:                                               ; preds = %_ZNSt10shared_ptrIN32pxrInternal_v0_24__pxrReserved__12PcpPrimIndexEEC2ERKS2_.exit
  %21 = getelementptr inbounds nuw i8, ptr %0, i64 48
  store ptr null, ptr %21, align 8
  %22 = getelementptr inbounds i8, ptr %0, i64 56
  store i64 -1, ptr %22, align 8
  %23 = getelementptr inbounds nuw i8, ptr %0, i64 64
  %24 = getelementptr inbounds nuw i8, ptr %0, i64 72
  store i64 0, ptr %23, align 8
  %25 = getelementptr inbounds nuw i8, ptr %0, i64 88
  store ptr null, ptr %25, align 8
  %26 = getelementptr inbounds i8, ptr %0, i64 32
  tail call void @llvm.memcpy.p0.p0.i64(ptr noundef nonnull align 8 dereferenceable(16) %24, ptr noundef nonnull align 8 dereferenceable(16) %26, i64 16, i1 false)
  %27 = load ptr, ptr %1, align 8
  %28 = invoke { ptr, i64 } @_ZNK32pxrInternal_v0_24__pxrReserved__12PcpPrimIndex21GetNodeIteratorAtNodeERKNS_10PcpNodeRefE(ptr noundef nonnull align 8 dereferenceable(40) %27, ptr noundef nonnull align 8 dereferenceable(16) %2)
          to label %29 unwind label %41

29:                                               ; preds = %20
  %30 = extractvalue { ptr, i64 } %28, 0
  %31 = extractvalue { ptr, i64 } %28, 1
  store ptr %30, ptr %21, align 8
  store i64 %31, ptr %22, align 8
  %32 = load ptr, ptr %26, align 8
  %33 = icmp ne ptr %30, %32
  %34 = getelementptr inbounds i8, ptr %0, i64 40
  %35 = load i64, ptr %34, align 8
  %36 = icmp ne i64 %31, %35
  %.not3.i = or i1 %33, %36
  br i1 %.not3.i, label %37, label %43

37:                                               ; preds = %29
  store ptr %30, ptr %5, align 8
  %38 = getelementptr inbounds nuw i8, ptr %5, i64 8
  store i64 %31, ptr %38, align 8
  %39 = invoke fastcc ptr @_ZN32pxrInternal_v0_24__pxrReserved__L23_GetLayerIteratorInNodeERKNS_10PcpNodeRefERKNS_9TfWeakPtrINS_8SdfLayerEEE(ptr noundef nonnull align 8 dereferenceable(16) %5, ptr noundef nonnull align 8 dereferenceable(16) %3)
          to label %40 unwind label %41

40:                                               ; preds = %37
  store ptr %39, ptr %23, align 8
  br label %43

41:                                               ; preds = %37, %20, %_ZNSt10shared_ptrIN32pxrInternal_v0_24__pxrReserved__12PcpPrimIndexEEC2ERKS2_.exit
  %42 = landingpad { ptr, i32 }
          cleanup
  call void @_ZNSt10shared_ptrIN32pxrInternal_v0_24__pxrReserved__12PcpPrimIndexEED2Ev(ptr noundef nonnull align 8 dereferenceable(16) %0) #11
  resume { ptr, i32 } %42

43:                                               ; preds = %40, %29
  ret void
}